target datalayout = "e-m:e-p270:32:32-p271:32:32-p272:64:64-i64:64-i128:128-f80:128-n8:16:32:64-S128"
target triple = "x86_64-pc-linux-gnu"

; Function Attrs: nounwind sspstrong uwtable
define internal i64 @fun_so_to_utf_16le(ptr noundef %0, ptr noundef %1, i64 noundef %2, ptr noundef %3, i64 noundef %4) #0 {
  %6 = alloca i64, align 8
  %7 = alloca ptr, align 8
  %8 = alloca ptr, align 8
  %9 = alloca i64, align 8
  %10 = alloca ptr, align 8
  %11 = alloca i64, align 8
  %12 = alloca i32, align 4
  store ptr %0, ptr %7, align 8, !tbaa !6
  store ptr %1, ptr %8, align 8, !tbaa !10
  store i64 %2, ptr %9, align 8, !tbaa !12
  store ptr %3, ptr %10, align 8, !tbaa !10
  store i64 %4, ptr %11, align 8, !tbaa !12
  %13 = load ptr, ptr %8, align 8, !tbaa !10
  %14 = getelementptr inbounds i8, ptr %13, i64 0
  %15 = load i8, ptr %14, align 1, !tbaa !14
  %16 = zext i8 %15 to i32
  %17 = and i32 %16, 128
  %18 = icmp ne i32 %17, 0
  br i1 %18, label %27, label %19

19:                                               ; preds = %5
  %20 = load ptr, ptr %10, align 8, !tbaa !10
  %21 = getelementptr inbounds i8, ptr %20, i64 1
  store i8 0, ptr %21, align 1, !tbaa !14
  %22 = load ptr, ptr %8, align 8, !tbaa !10
  %23 = getelementptr inbounds i8, ptr %22, i64 0
  %24 = load i8, ptr %23, align 1, !tbaa !14
  %25 = load ptr, ptr %10, align 8, !tbaa !10
  %26 = getelementptr inbounds i8, ptr %25, i64 0
  store i8 %24, ptr %26, align 1, !tbaa !14
  store i64 2, ptr %6, align 8
  br label %160

27:                                               ; preds = %5
  %28 = load ptr, ptr %8, align 8, !tbaa !10
  %29 = getelementptr inbounds i8, ptr %28, i64 0
  %30 = load i8, ptr %29, align 1, !tbaa !14
  %31 = zext i8 %30 to i32
  %32 = and i32 %31, 224
  %33 = icmp eq i32 %32, 192
  br i1 %33, label %34, label %59

34:                                               ; preds = %27
  %35 = load ptr, ptr %8, align 8, !tbaa !10
  %36 = getelementptr inbounds i8, ptr %35, i64 0
  %37 = load i8, ptr %36, align 1, !tbaa !14
  %38 = zext i8 %37 to i32
  %39 = ashr i32 %38, 2
  %40 = and i32 %39, 7
  %41 = trunc i32 %40 to i8
  %42 = load ptr, ptr %10, align 8, !tbaa !10
  %43 = getelementptr inbounds i8, ptr %42, i64 1
  store i8 %41, ptr %43, align 1, !tbaa !14
  %44 = load ptr, ptr %8, align 8, !tbaa !10
  %45 = getelementptr inbounds i8, ptr %44, i64 0
  %46 = load i8, ptr %45, align 1, !tbaa !14
  %47 = zext i8 %46 to i32
  %48 = and i32 %47, 3
  %49 = shl i32 %48, 6
  %50 = load ptr, ptr %8, align 8, !tbaa !10
  %51 = getelementptr inbounds i8, ptr %50, i64 1
  %52 = load i8, ptr %51, align 1, !tbaa !14
  %53 = zext i8 %52 to i32
  %54 = and i32 %53, 63
  %55 = or i32 %49, %54
  %56 = trunc i32 %55 to i8
  %57 = load ptr, ptr %10, align 8, !tbaa !10
  %58 = getelementptr inbounds i8, ptr %57, i64 0
  store i8 %56, ptr %58, align 1, !tbaa !14
  store i64 2, ptr %6, align 8
  br label %160

59:                                               ; preds = %27
  %60 = load ptr, ptr %8, align 8, !tbaa !10
  %61 = getelementptr inbounds i8, ptr %60, i64 0
  %62 = load i8, ptr %61, align 1, !tbaa !14
  %63 = zext i8 %62 to i32
  %64 = and i32 %63, 240
  %65 = icmp eq i32 %64, 224
  br i1 %65, label %66, label %96

66:                                               ; preds = %59
  %67 = load ptr, ptr %8, align 8, !tbaa !10
  %68 = getelementptr inbounds i8, ptr %67, i64 0
  %69 = load i8, ptr %68, align 1, !tbaa !14
  %70 = zext i8 %69 to i32
  %71 = shl i32 %70, 4
  %72 = load ptr, ptr %8, align 8, !tbaa !10
  %73 = getelementptr inbounds i8, ptr %72, i64 1
  %74 = load i8, ptr %73, align 1, !tbaa !14
  %75 = zext i8 %74 to i32
  %76 = ashr i32 %75, 2
  %77 = xor i32 %76, 32
  %78 = or i32 %71, %77
  %79 = trunc i32 %78 to i8
  %80 = load ptr, ptr %10, align 8, !tbaa !10
  %81 = getelementptr inbounds i8, ptr %80, i64 1
  store i8 %79, ptr %81, align 1, !tbaa !14
  %82 = load ptr, ptr %8, align 8, !tbaa !10
  %83 = getelementptr inbounds i8, ptr %82, i64 1
  %84 = load i8, ptr %83, align 1, !tbaa !14
  %85 = zext i8 %84 to i32
  %86 = shl i32 %85, 6
  %87 = load ptr, ptr %8, align 8, !tbaa !10
  %88 = getelementptr inbounds i8, ptr %87, i64 2
  %89 = load i8, ptr %88, align 1, !tbaa !14
  %90 = zext i8 %89 to i32
  %91 = xor i32 %90, 128
  %92 = or i32 %86, %91
  %93 = trunc i32 %92 to i8
  %94 = load ptr, ptr %10, align 8, !tbaa !10
  %95 = getelementptr inbounds i8, ptr %94, i64 0
  store i8 %93, ptr %95, align 1, !tbaa !14
  store i64 2, ptr %6, align 8
  br label %160

96:                                               ; preds = %59
  call void @llvm.lifetime.start.p0(i64 4, ptr %12) #3
  %97 = load ptr, ptr %8, align 8, !tbaa !10
  %98 = getelementptr inbounds i8, ptr %97, i64 0
  %99 = load i8, ptr %98, align 1, !tbaa !14
  %100 = zext i8 %99 to i32
  %101 = and i32 %100, 7
  %102 = shl i32 %101, 2
  %103 = load ptr, ptr %8, align 8, !tbaa !10
  %104 = getelementptr inbounds i8, ptr %103, i64 1
  %105 = load i8, ptr %104, align 1, !tbaa !14
  %106 = zext i8 %105 to i32
  %107 = ashr i32 %106, 4
  %108 = and i32 %107, 3
  %109 = or i32 %102, %108
  %110 = sub nsw i32 %109, 1
  store i32 %110, ptr %12, align 4, !tbaa !15
  %111 = load i32, ptr %12, align 4, !tbaa !15
  %112 = ashr i32 %111, 2
  %113 = or i32 216, %112
  %114 = trunc i32 %113 to i8
  %115 = load ptr, ptr %10, align 8, !tbaa !10
  %116 = getelementptr inbounds i8, ptr %115, i64 1
  store i8 %114, ptr %116, align 1, !tbaa !14
  %117 = load i32, ptr %12, align 4, !tbaa !15
  %118 = shl i32 %117, 6
  %119 = load ptr, ptr %8, align 8, !tbaa !10
  %120 = getelementptr inbounds i8, ptr %119, i64 1
  %121 = load i8, ptr %120, align 1, !tbaa !14
  %122 = zext i8 %121 to i32
  %123 = and i32 %122, 15
  %124 = shl i32 %123, 2
  %125 = or i32 %118, %124
  %126 = load ptr, ptr %8, align 8, !tbaa !10
  %127 = getelementptr inbounds i8, ptr %126, i64 2
  %128 = load i8, ptr %127, align 1, !tbaa !14
  %129 = zext i8 %128 to i32
  %130 = ashr i32 %129, 4
  %131 = sub nsw i32 %130, 8
  %132 = or i32 %125, %131
  %133 = trunc i32 %132 to i8
  %134 = load ptr, ptr %10, align 8, !tbaa !10
  %135 = getelementptr inbounds i8, ptr %134, i64 0
  store i8 %133, ptr %135, align 1, !tbaa !14
  %136 = load ptr, ptr %8, align 8, !tbaa !10
  %137 = getelementptr inbounds i8, ptr %136, i64 2
  %138 = load i8, ptr %137, align 1, !tbaa !14
  %139 = zext i8 %138 to i32
  %140 = ashr i32 %139, 2
  %141 = and i32 %140, 3
  %142 = or i32 220, %141
  %143 = trunc i32 %142 to i8
  %144 = load ptr, ptr %10, align 8, !tbaa !10
  %145 = getelementptr inbounds i8, ptr %144, i64 3
  store i8 %143, ptr %145, align 1, !tbaa !14
  %146 = load ptr, ptr %8, align 8, !tbaa !10
  %147 = getelementptr inbounds i8, ptr %146, i64 2
  %148 = load i8, ptr %147, align 1, !tbaa !14
  %149 = zext i8 %148 to i32
  %150 = shl i32 %149, 6
  %151 = load ptr, ptr %8, align 8, !tbaa !10
  %152 = getelementptr inbounds i8, ptr %151, i64 3
  %153 = load i8, ptr %152, align 1, !tbaa !14
  %154 = zext i8 %153 to i32
  %155 = and i32 %154, -129
  %156 = or i32 %150, %155
  %157 = trunc i32 %156 to i8
  %158 = load ptr, ptr %10, align 8, !tbaa !10
  %159 = getelementptr inbounds i8, ptr %158, i64 2
  store i8 %157, ptr %159, align 1, !tbaa !14
  store i64 4, ptr %6, align 8
  call void @llvm.lifetime.end.p0(i64 4, ptr %12) #3
  br label %160

160:                                              ; preds = %96, %66, %34, %19
  %161 = load i64, ptr %6, align 8
  ret i64 %161
}