; Function Attrs: mustprogress nofree norecurse nosync nounwind sspstrong willreturn memory(argmem: readwrite) uwtable
define internal range(i64 2, 5) i64 @fun_so_to_utf_16le(ptr readnone captures(none) %0, ptr noundef readonly captures(none) %1, i64 %2, ptr noundef writeonly captures(none) initializes((0, 2)) %3, i64 %4) #2 {
  %6 = load i8, ptr %1, align 1, !tbaa !6
  %7 = zext i8 %6 to i32
  %.not = icmp sgt i8 %6, -1
  br i1 %.not, label %8, label %11

8:                                                ; preds = %5
  %9 = getelementptr inbounds nuw i8, ptr %3, i64 1
  store i8 0, ptr %9, align 1, !tbaa !6
  %10 = load i8, ptr %1, align 1, !tbaa !6
  store i8 %10, ptr %3, align 1, !tbaa !6
  br label %80

11:                                               ; preds = %5
  %12 = and i32 %7, 224
  %13 = icmp eq i32 %12, 192
  br i1 %13, label %14, label %24

14:                                               ; preds = %11
  %15 = lshr i8 %6, 2
  %16 = and i8 %15, 7
  %17 = getelementptr inbounds nuw i8, ptr %3, i64 1
  store i8 %16, ptr %17, align 1, !tbaa !6
  %18 = load i8, ptr %1, align 1, !tbaa !6
  %19 = shl i8 %18, 6
  %20 = getelementptr inbounds nuw i8, ptr %1, i64 1
  %21 = load i8, ptr %20, align 1, !tbaa !6
  %22 = and i8 %21, 63
  %23 = or disjoint i8 %22, %19
  store i8 %23, ptr %3, align 1, !tbaa !6
  br label %80

24:                                               ; preds = %11
  %25 = and i32 %7, 240
  %26 = icmp eq i32 %25, 224
  br i1 %26, label %27, label %41

27:                                               ; preds = %24
  %28 = shl i8 %6, 4
  %29 = getelementptr inbounds nuw i8, ptr %1, i64 1
  %30 = load i8, ptr %29, align 1, !tbaa !6
  %31 = lshr i8 %30, 2
  %32 = xor i8 %31, 32
  %33 = or i8 %32, %28
  %34 = getelementptr inbounds nuw i8, ptr %3, i64 1
  store i8 %33, ptr %34, align 1, !tbaa !6
  %35 = load i8, ptr %29, align 1, !tbaa !6
  %36 = shl i8 %35, 6
  %37 = getelementptr inbounds nuw i8, ptr %1, i64 2
  %38 = load i8, ptr %37, align 1, !tbaa !6
  %39 = xor i8 %38, -128
  %40 = or i8 %39, %36
  store i8 %40, ptr %3, align 1, !tbaa !6
  br label %80

41:                                               ; preds = %24
  %42 = shl nuw nsw i32 %7, 2
  %43 = and i32 %42, 28
  %44 = getelementptr inbounds nuw i8, ptr %1, i64 1
  %45 = load i8, ptr %44, align 1, !tbaa !6
  %46 = lshr i8 %45, 4
  %47 = and i8 %46, 3
  %48 = zext nneg i8 %47 to i32
  %49 = or disjoint i32 %43, %48
  %50 = add nsw i32 %49, -1
  %51 = trunc nsw i32 %50 to i8
  %52 = lshr i8 %51, 2
  %53 = or i8 %52, -40
  %54 = getelementptr inbounds nuw i8, ptr %3, i64 1
  store i8 %53, ptr %54, align 1, !tbaa !6
  %55 = shl nsw i32 %50, 6
  %56 = load i8, ptr %44, align 1, !tbaa !6
  %57 = shl i8 %56, 2
  %58 = and i8 %57, 60
  %59 = zext nneg i8 %58 to i32
  %60 = or disjoint i32 %55, %59
  %61 = getelementptr inbounds nuw i8, ptr %1, i64 2
  %62 = load i8, ptr %61, align 1, !tbaa !6
  %63 = lshr i8 %62, 4
  %64 = zext nneg i8 %63 to i32
  %65 = add nuw nsw i32 %64, 248
  %66 = or i32 %60, %65
  %67 = trunc i32 %66 to i8
  store i8 %67, ptr %3, align 1, !tbaa !6
  %68 = load i8, ptr %61, align 1, !tbaa !6
  %69 = lshr i8 %68, 2
  %70 = and i8 %69, 3
  %71 = or disjoint i8 %70, -36
  %72 = getelementptr inbounds nuw i8, ptr %3, i64 3
  store i8 %71, ptr %72, align 1, !tbaa !6
  %73 = load i8, ptr %61, align 1, !tbaa !6
  %74 = shl i8 %73, 6
  %75 = getelementptr inbounds nuw i8, ptr %1, i64 3
  %76 = load i8, ptr %75, align 1, !tbaa !6
  %77 = and i8 %76, 127
  %78 = or i8 %77, %74
  %79 = getelementptr inbounds nuw i8, ptr %3, i64 2
  store i8 %78, ptr %79, align 1, !tbaa !6
  br label %80

80:                                               ; preds = %41, %27, %14, %8
  %.0 = phi i64 [ 2, %14 ], [ 2, %27 ], [ 4, %41 ], [ 2, %8 ]
  ret i64 %.0
}